target datalayout = "e-m:e-p270:32:32-p271:32:32-p272:64:64-i64:64-i128:128-f80:128-n8:16:32:64-S128"
target triple = "x86_64-pc-linux-gnu"

%class.XMMRegister = type { i32 }

@UseAVX = external global i32, align 4

; Function Attrs: mustprogress nounwind uwtable
define linkonce_odr hidden void @_ZN14MacroAssembler9pclmulldqE11XMMRegisterS0_(ptr noundef nonnull align 8 dereferenceable(40) %0, i32 %1, i32 %2) #1 comdat align 2 {
  %4 = alloca %class.XMMRegister, align 4
  %5 = alloca %class.XMMRegister, align 4
  %6 = alloca ptr, align 8
  %7 = alloca %class.XMMRegister, align 4
  %8 = alloca %class.XMMRegister, align 4
  %9 = getelementptr inbounds %class.XMMRegister, ptr %4, i32 0, i32 0
  store i32 %1, ptr %9, align 4
  %10 = getelementptr inbounds %class.XMMRegister, ptr %5, i32 0, i32 0
  store i32 %2, ptr %10, align 4
  store ptr %0, ptr %6, align 8
  %11 = load ptr, ptr %6, align 8
  call void @llvm.memcpy.p0.p0.i64(ptr align 4 %7, ptr align 4 %4, i64 4, i1 false)
  call void @llvm.memcpy.p0.p0.i64(ptr align 4 %8, ptr align 4 %5, i64 4, i1 false)
  %12 = getelementptr inbounds %class.XMMRegister, ptr %7, i32 0, i32 0
  %13 = load i32, ptr %12, align 4
  %14 = getelementptr inbounds %class.XMMRegister, ptr %8, i32 0, i32 0
  %15 = load i32, ptr %14, align 4
  call void @_ZN9Assembler9pclmulqdqE11XMMRegisterS0_i(ptr noundef nonnull align 8 dereferenceable(40) %11, i32 %13, i32 %15, i32 noundef 0)
  ret void
}

; Function Attrs: mustprogress nounwind uwtable
define linkonce_odr hidden void @_ZN14MacroAssembler9pclmulhdqE11XMMRegisterS0_(ptr noundef nonnull align 8 dereferenceable(40) %0, i32 %1, i32 %2) #1 comdat align 2 {
  %4 = alloca %class.XMMRegister, align 4
  %5 = alloca %class.XMMRegister, align 4
  %6 = alloca ptr, align 8
  %7 = alloca %class.XMMRegister, align 4
  %8 = alloca %class.XMMRegister, align 4
  %9 = getelementptr inbounds %class.XMMRegister, ptr %4, i32 0, i32 0
  store i32 %1, ptr %9, align 4
  %10 = getelementptr inbounds %class.XMMRegister, ptr %5, i32 0, i32 0
  store i32 %2, ptr %10, align 4
  store ptr %0, ptr %6, align 8
  %11 = load ptr, ptr %6, align 8
  call void @llvm.memcpy.p0.p0.i64(ptr align 4 %7, ptr align 4 %4, i64 4, i1 false)
  call void @llvm.memcpy.p0.p0.i64(ptr align 4 %8, ptr align 4 %5, i64 4, i1 false)
  %12 = getelementptr inbounds %class.XMMRegister, ptr %7, i32 0, i32 0
  %13 = load i32, ptr %12, align 4
  %14 = getelementptr inbounds %class.XMMRegister, ptr %8, i32 0, i32 0
  %15 = load i32, ptr %14, align 4
  call void @_ZN9Assembler9pclmulqdqE11XMMRegisterS0_i(ptr noundef nonnull align 8 dereferenceable(40) %11, i32 %13, i32 %15, i32 noundef 17)
  ret void
}

; Function Attrs: mustprogress nounwind uwtable
define linkonce_odr hidden void @_ZN14MacroAssembler6movdqaE11XMMRegisterS0_(ptr noundef nonnull align 8 dereferenceable(40) %0, i32 %1, i32 %2) #1 comdat align 2 {
  %4 = alloca %class.XMMRegister, align 4
  %5 = alloca %class.XMMRegister, align 4
  %6 = alloca ptr, align 8
  %7 = alloca %class.XMMRegister, align 4
  %8 = alloca %class.XMMRegister, align 4
  %9 = getelementptr inbounds %class.XMMRegister, ptr %4, i32 0, i32 0
  store i32 %1, ptr %9, align 4
  %10 = getelementptr inbounds %class.XMMRegister, ptr %5, i32 0, i32 0
  store i32 %2, ptr %10, align 4
  store ptr %0, ptr %6, align 8
  %11 = load ptr, ptr %6, align 8
  call void @llvm.memcpy.p0.p0.i64(ptr align 4 %7, ptr align 4 %4, i64 4, i1 false)
  call void @llvm.memcpy.p0.p0.i64(ptr align 4 %8, ptr align 4 %5, i64 4, i1 false)
  %12 = getelementptr inbounds %class.XMMRegister, ptr %7, i32 0, i32 0
  %13 = load i32, ptr %12, align 4
  %14 = getelementptr inbounds %class.XMMRegister, ptr %8, i32 0, i32 0
  %15 = load i32, ptr %14, align 4
  call void @_ZN9Assembler6movdqaE11XMMRegisterS0_(ptr noundef nonnull align 8 dereferenceable(40) %11, i32 %13, i32 %15)
  ret void
}

; Function Attrs: mustprogress nounwind uwtable
define linkonce_odr hidden void @_ZN14MacroAssembler10vpclmulldqE11XMMRegisterS0_S0_(ptr noundef nonnull align 8 dereferenceable(40) %0, i32 %1, i32 %2, i32 %3) #1 comdat align 2 {
  %5 = alloca %class.XMMRegister, align 4
  %6 = alloca %class.XMMRegister, align 4
  %7 = alloca %class.XMMRegister, align 4
  %8 = alloca ptr, align 8
  %9 = alloca %class.XMMRegister, align 4
  %10 = alloca %class.XMMRegister, align 4
  %11 = alloca %class.XMMRegister, align 4
  %12 = getelementptr inbounds %class.XMMRegister, ptr %5, i32 0, i32 0
  store i32 %1, ptr %12, align 4
  %13 = getelementptr inbounds %class.XMMRegister, ptr %6, i32 0, i32 0
  store i32 %2, ptr %13, align 4
  %14 = getelementptr inbounds %class.XMMRegister, ptr %7, i32 0, i32 0
  store i32 %3, ptr %14, align 4
  store ptr %0, ptr %8, align 8
  %15 = load ptr, ptr %8, align 8
  call void @llvm.memcpy.p0.p0.i64(ptr align 4 %9, ptr align 4 %5, i64 4, i1 false)
  call void @llvm.memcpy.p0.p0.i64(ptr align 4 %10, ptr align 4 %6, i64 4, i1 false)
  call void @llvm.memcpy.p0.p0.i64(ptr align 4 %11, ptr align 4 %7, i64 4, i1 false)
  %16 = getelementptr inbounds %class.XMMRegister, ptr %9, i32 0, i32 0
  %17 = load i32, ptr %16, align 4
  %18 = getelementptr inbounds %class.XMMRegister, ptr %10, i32 0, i32 0
  %19 = load i32, ptr %18, align 4
  %20 = getelementptr inbounds %class.XMMRegister, ptr %11, i32 0, i32 0
  %21 = load i32, ptr %20, align 4
  call void @_ZN9Assembler10vpclmulqdqE11XMMRegisterS0_S0_i(ptr noundef nonnull align 8 dereferenceable(40) %15, i32 %17, i32 %19, i32 %21, i32 noundef 0)
  ret void
}

; Function Attrs: mustprogress nounwind uwtable
define linkonce_odr hidden void @_ZN14MacroAssembler10vpclmulhdqE11XMMRegisterS0_S0_(ptr noundef nonnull align 8 dereferenceable(40) %0, i32 %1, i32 %2, i32 %3) #1 comdat align 2 {
  %5 = alloca %class.XMMRegister, align 4
  %6 = alloca %class.XMMRegister, align 4
  %7 = alloca %class.XMMRegister, align 4
  %8 = alloca ptr, align 8
  %9 = alloca %class.XMMRegister, align 4
  %10 = alloca %class.XMMRegister, align 4
  %11 = alloca %class.XMMRegister, align 4
  %12 = getelementptr inbounds %class.XMMRegister, ptr %5, i32 0, i32 0
  store i32 %1, ptr %12, align 4
  %13 = getelementptr inbounds %class.XMMRegister, ptr %6, i32 0, i32 0
  store i32 %2, ptr %13, align 4
  %14 = getelementptr inbounds %class.XMMRegister, ptr %7, i32 0, i32 0
  store i32 %3, ptr %14, align 4
  store ptr %0, ptr %8, align 8
  %15 = load ptr, ptr %8, align 8
  call void @llvm.memcpy.p0.p0.i64(ptr align 4 %9, ptr align 4 %5, i64 4, i1 false)
  call void @llvm.memcpy.p0.p0.i64(ptr align 4 %10, ptr align 4 %6, i64 4, i1 false)
  call void @llvm.memcpy.p0.p0.i64(ptr align 4 %11, ptr align 4 %7, i64 4, i1 false)
  %16 = getelementptr inbounds %class.XMMRegister, ptr %9, i32 0, i32 0
  %17 = load i32, ptr %16, align 4
  %18 = getelementptr inbounds %class.XMMRegister, ptr %10, i32 0, i32 0
  %19 = load i32, ptr %18, align 4
  %20 = getelementptr inbounds %class.XMMRegister, ptr %11, i32 0, i32 0
  %21 = load i32, ptr %20, align 4
  call void @_ZN9Assembler10vpclmulqdqE11XMMRegisterS0_S0_i(ptr noundef nonnull align 8 dereferenceable(40) %15, i32 %17, i32 %19, i32 %21, i32 noundef 17)
  ret void
}

; Function Attrs: mustprogress nounwind uwtable
define hidden void @_ZN14MacroAssembler17fold_128bit_crc32E11XMMRegisterS0_S0_S0_(ptr noundef nonnull align 8 dereferenceable(40) %0, i32 %1, i32 %2, i32 %3, i32 %4) #1 align 2 {
  %6 = alloca %class.XMMRegister, align 4
  %7 = alloca %class.XMMRegister, align 4
  %8 = alloca %class.XMMRegister, align 4
  %9 = alloca %class.XMMRegister, align 4
  %10 = alloca ptr, align 8
  %11 = alloca %class.XMMRegister, align 4
  %12 = alloca %class.XMMRegister, align 4
  %13 = alloca %class.XMMRegister, align 4
  %14 = alloca %class.XMMRegister, align 4
  %15 = alloca %class.XMMRegister, align 4
  %16 = alloca %class.XMMRegister, align 4
  %17 = alloca %class.XMMRegister, align 4
  %18 = alloca %class.XMMRegister, align 4
  %19 = alloca %class.XMMRegister, align 4
  %20 = alloca %class.XMMRegister, align 4
  %21 = alloca %class.XMMRegister, align 4
  %22 = alloca %class.XMMRegister, align 4
  %23 = alloca %class.XMMRegister, align 4
  %24 = alloca %class.XMMRegister, align 4
  %25 = alloca %class.XMMRegister, align 4
  %26 = alloca %class.XMMRegister, align 4
  %27 = alloca %class.XMMRegister, align 4
  %28 = alloca %class.XMMRegister, align 4
  %29 = alloca %class.XMMRegister, align 4
  %30 = alloca %class.XMMRegister, align 4
  %31 = getelementptr inbounds %class.XMMRegister, ptr %6, i32 0, i32 0
  store i32 %1, ptr %31, align 4
  %32 = getelementptr inbounds %class.XMMRegister, ptr %7, i32 0, i32 0
  store i32 %2, ptr %32, align 4
  %33 = getelementptr inbounds %class.XMMRegister, ptr %8, i32 0, i32 0
  store i32 %3, ptr %33, align 4
  %34 = getelementptr inbounds %class.XMMRegister, ptr %9, i32 0, i32 0
  store i32 %4, ptr %34, align 4
  store ptr %0, ptr %10, align 8
  %35 = load ptr, ptr %10, align 8
  %36 = load i32, ptr @UseAVX, align 4
  %37 = icmp sgt i32 %36, 0
  br i1 %37, label %38, label %59

38:                                               ; preds = %5
  call void @llvm.memcpy.p0.p0.i64(ptr align 4 %11, ptr align 4 %8, i64 4, i1 false)
  call void @llvm.memcpy.p0.p0.i64(ptr align 4 %12, ptr align 4 %7, i64 4, i1 false)
  call void @llvm.memcpy.p0.p0.i64(ptr align 4 %13, ptr align 4 %6, i64 4, i1 false)
  %39 = getelementptr inbounds %class.XMMRegister, ptr %11, i32 0, i32 0
  %40 = load i32, ptr %39, align 4
  %41 = getelementptr inbounds %class.XMMRegister, ptr %12, i32 0, i32 0
  %42 = load i32, ptr %41, align 4
  %43 = getelementptr inbounds %class.XMMRegister, ptr %13, i32 0, i32 0
  %44 = load i32, ptr %43, align 4
  call void @_ZN14MacroAssembler10vpclmulhdqE11XMMRegisterS0_S0_(ptr noundef nonnull align 8 dereferenceable(40) %35, i32 %40, i32 %42, i32 %44)
  call void @llvm.memcpy.p0.p0.i64(ptr align 4 %14, ptr align 4 %6, i64 4, i1 false)
  call void @llvm.memcpy.p0.p0.i64(ptr align 4 %15, ptr align 4 %7, i64 4, i1 false)
  call void @llvm.memcpy.p0.p0.i64(ptr align 4 %16, ptr align 4 %6, i64 4, i1 false)
  %45 = getelementptr inbounds %class.XMMRegister, ptr %14, i32 0, i32 0
  %46 = load i32, ptr %45, align 4
  %47 = getelementptr inbounds %class.XMMRegister, ptr %15, i32 0, i32 0
  %48 = load i32, ptr %47, align 4
  %49 = getelementptr inbounds %class.XMMRegister, ptr %16, i32 0, i32 0
  %50 = load i32, ptr %49, align 4
  call void @_ZN14MacroAssembler10vpclmulldqE11XMMRegisterS0_S0_(ptr noundef nonnull align 8 dereferenceable(40) %35, i32 %46, i32 %48, i32 %50)
  call void @llvm.memcpy.p0.p0.i64(ptr align 4 %17, ptr align 4 %6, i64 4, i1 false)
  call void @llvm.memcpy.p0.p0.i64(ptr align 4 %18, ptr align 4 %9, i64 4, i1 false)
  %51 = getelementptr inbounds %class.XMMRegister, ptr %17, i32 0, i32 0
  %52 = load i32, ptr %51, align 4
  %53 = getelementptr inbounds %class.XMMRegister, ptr %18, i32 0, i32 0
  %54 = load i32, ptr %53, align 4
  call void @_ZN9Assembler4pxorE11XMMRegisterS0_(ptr noundef nonnull align 8 dereferenceable(40) %35, i32 %52, i32 %54)
  call void @llvm.memcpy.p0.p0.i64(ptr align 4 %19, ptr align 4 %6, i64 4, i1 false)
  call void @llvm.memcpy.p0.p0.i64(ptr align 4 %20, ptr align 4 %8, i64 4, i1 false)
  %55 = getelementptr inbounds %class.XMMRegister, ptr %19, i32 0, i32 0
  %56 = load i32, ptr %55, align 4
  %57 = getelementptr inbounds %class.XMMRegister, ptr %20, i32 0, i32 0
  %58 = load i32, ptr %57, align 4
  call void @_ZN9Assembler4pxorE11XMMRegisterS0_(ptr noundef nonnull align 8 dereferenceable(40) %35, i32 %56, i32 %58)
  br label %80

59:                                               ; preds = %5
  call void @llvm.memcpy.p0.p0.i64(ptr align 4 %21, ptr align 4 %8, i64 4, i1 false)
  call void @llvm.memcpy.p0.p0.i64(ptr align 4 %22, ptr align 4 %6, i64 4, i1 false)
  %60 = getelementptr inbounds %class.XMMRegister, ptr %21, i32 0, i32 0
  %61 = load i32, ptr %60, align 4
  %62 = getelementptr inbounds %class.XMMRegister, ptr %22, i32 0, i32 0
  %63 = load i32, ptr %62, align 4
  call void @_ZN14MacroAssembler6movdqaE11XMMRegisterS0_(ptr noundef nonnull align 8 dereferenceable(40) %35, i32 %61, i32 %63)
  call void @llvm.memcpy.p0.p0.i64(ptr align 4 %23, ptr align 4 %8, i64 4, i1 false)
  call void @llvm.memcpy.p0.p0.i64(ptr align 4 %24, ptr align 4 %7, i64 4, i1 false)
  %64 = getelementptr inbounds %class.XMMRegister, ptr %23, i32 0, i32 0
  %65 = load i32, ptr %64, align 4
  %66 = getelementptr inbounds %class.XMMRegister, ptr %24, i32 0, i32 0
  %67 = load i32, ptr %66, align 4
  call void @_ZN14MacroAssembler9pclmulhdqE11XMMRegisterS0_(ptr noundef nonnull align 8 dereferenceable(40) %35, i32 %65, i32 %67)
  call void @llvm.memcpy.p0.p0.i64(ptr align 4 %25, ptr align 4 %6, i64 4, i1 false)
  call void @llvm.memcpy.p0.p0.i64(ptr align 4 %26, ptr align 4 %7, i64 4, i1 false)
  %68 = getelementptr inbounds %class.XMMRegister, ptr %25, i32 0, i32 0
  %69 = load i32, ptr %68, align 4
  %70 = getelementptr inbounds %class.XMMRegister, ptr %26, i32 0, i32 0
  %71 = load i32, ptr %70, align 4
  call void @_ZN14MacroAssembler9pclmulldqE11XMMRegisterS0_(ptr noundef nonnull align 8 dereferenceable(40) %35, i32 %69, i32 %71)
  call void @llvm.memcpy.p0.p0.i64(ptr align 4 %27, ptr align 4 %6, i64 4, i1 false)
  call void @llvm.memcpy.p0.p0.i64(ptr align 4 %28, ptr align 4 %9, i64 4, i1 false)
  %72 = getelementptr inbounds %class.XMMRegister, ptr %27, i32 0, i32 0
  %73 = load i32, ptr %72, align 4
  %74 = getelementptr inbounds %class.XMMRegister, ptr %28, i32 0, i32 0
  %75 = load i32, ptr %74, align 4
  call void @_ZN9Assembler4pxorE11XMMRegisterS0_(ptr noundef nonnull align 8 dereferenceable(40) %35, i32 %73, i32 %75)
  call void @llvm.memcpy.p0.p0.i64(ptr align 4 %29, ptr align 4 %6, i64 4, i1 false)
  call void @llvm.memcpy.p0.p0.i64(ptr align 4 %30, ptr align 4 %8, i64 4, i1 false)
  %76 = getelementptr inbounds %class.XMMRegister, ptr %29, i32 0, i32 0
  %77 = load i32, ptr %76, align 4
  %78 = getelementptr inbounds %class.XMMRegister, ptr %30, i32 0, i32 0
  %79 = load i32, ptr %78, align 4
  call void @_ZN9Assembler4pxorE11XMMRegisterS0_(ptr noundef nonnull align 8 dereferenceable(40) %35, i32 %77, i32 %79)
  br label %80

80:                                               ; preds = %59, %38
  ret void
}