; Function Attrs: mustprogress nounwind uwtable
define hidden void @_ZN14MacroAssembler17fold_128bit_crc32E11XMMRegisterS0_S0_S0_(ptr noundef nonnull align 8 dereferenceable(40) %0, i32 %1, i32 %2, i32 %3, i32 %4) local_unnamed_addr #0 align 2 {
  %6 = load i32, ptr @UseAVX, align 4
  %7 = icmp sgt i32 %6, 0
  br i1 %7, label %8, label %9

8:                                                ; preds = %5
  tail call void @_ZN9Assembler10vpclmulqdqE11XMMRegisterS0_S0_i(ptr noundef nonnull align 8 dereferenceable(40) %0, i32 %3, i32 %2, i32 %1, i32 noundef 17) #18
  tail call void @_ZN9Assembler10vpclmulqdqE11XMMRegisterS0_S0_i(ptr noundef nonnull align 8 dereferenceable(40) %0, i32 %1, i32 %2, i32 %1, i32 noundef 0) #18
  br label %10

9:                                                ; preds = %5
  tail call void @_ZN9Assembler6movdqaE11XMMRegisterS0_(ptr noundef nonnull align 8 dereferenceable(40) %0, i32 %3, i32 %1) #18
  tail call void @_ZN9Assembler9pclmulqdqE11XMMRegisterS0_i(ptr noundef nonnull align 8 dereferenceable(40) %0, i32 %3, i32 %2, i32 noundef 17) #18
  tail call void @_ZN9Assembler9pclmulqdqE11XMMRegisterS0_i(ptr noundef nonnull align 8 dereferenceable(40) %0, i32 %1, i32 %2, i32 noundef 0) #18
  br label %10

10:                                               ; preds = %9, %8
  tail call void @_ZN9Assembler4pxorE11XMMRegisterS0_(ptr noundef nonnull align 8 dereferenceable(40) %0, i32 %1, i32 %4) #18
  tail call void @_ZN9Assembler4pxorE11XMMRegisterS0_(ptr noundef nonnull align 8 dereferenceable(40) %0, i32 %1, i32 %3) #18
  ret void
}